; Function Attrs: nounwind sspstrong uwtable
define internal noundef i64 @rb_deflate_addstr(i64 noundef returned %0, i64 noundef %1) #0 {
  %3 = tail call ptr @rb_check_typeddata(i64 noundef %0, ptr noundef nonnull @zstream_data_type) #18
  %4 = load i64, ptr %3, align 8, !tbaa !42
  %5 = and i64 %4, 1
  %.not.i = icmp eq i64 %5, 0
  br i1 %.not.i, label %6, label %get_zstream.exit

6:                                                ; preds = %2
  %7 = load i64, ptr @cZError, align 8, !tbaa !6
  tail call void (i64, ptr, ...) @rb_raise(i64 noundef %7, ptr noundef nonnull @.str.150) #19
  unreachable

get_zstream.exit:                                 ; preds = %2
  tail call fastcc void @do_deflate(ptr noundef nonnull %3, i64 noundef %1, i32 noundef 0)
  ret i64 %0
}